; Function Attrs: mustprogress uwtable
define hidden void @_ZN5osgeo4proj9operation25GeneralOperationParameterC2ERKS2_(ptr noundef nonnull align 8 dereferenceable(48) %0, ptr noundef nonnull align 8 dereferenceable(48) %1) unnamed_addr #0 align 2 personality ptr @__gxx_personality_v0 {
  tail call void @_ZN5osgeo4proj6common16IdentifiedObjectC2ERKS2_(ptr noundef nonnull align 8 dereferenceable(40) %0, ptr noundef nonnull align 8 dereferenceable(40) %1)
  store ptr getelementptr inbounds nuw inrange(-16, 32) (i8, ptr @_ZTVN5osgeo4proj9operation25GeneralOperationParameterE, i64 16), ptr %0, align 8, !tbaa !3
  %3 = getelementptr inbounds nuw i8, ptr %0, i64 16
  store ptr getelementptr inbounds nuw inrange(-16, 24) (i8, ptr @_ZTVN5osgeo4proj9operation25GeneralOperationParameterE, i64 64), ptr %3, align 8, !tbaa !3
  %4 = getelementptr inbounds nuw i8, ptr %0, i64 24
  store ptr getelementptr inbounds nuw inrange(-16, 24) (i8, ptr @_ZTVN5osgeo4proj9operation25GeneralOperationParameterE, i64 104), ptr %4, align 8, !tbaa !3
  %5 = getelementptr inbounds nuw i8, ptr %0, i64 40
  store ptr null, ptr %5, align 8, !tbaa !293
  ret void
}